target datalayout = "e-m:e-p270:32:32-p271:32:32-p272:64:64-i64:64-i128:128-f80:128-n8:16:32:64-S128"
target triple = "x86_64-pc-linux-gnu"

%class.Metadata = type { ptr }
%class.OopHandle = type { ptr }
%class.AccessFlags = type { i32 }
%class.fieldDescriptor = type { %class.FieldInfo, %class.constantPoolHandle }
%class.FieldInfo = type <{ i32, i16, i16, i32, %class.AccessFlags, %"class.FieldInfo::FieldFlags", i16, i16, i16, [2 x i8] }>
%"class.FieldInfo::FieldFlags" = type { i32 }
%class.constantPoolHandle = type { ptr, ptr }
%class.InstanceKlass = type { %class.Klass.base, ptr, ptr, ptr, ptr, ptr, ptr, ptr, ptr, ptr, ptr, i32, i32, i32, i32, i16, i16, i16, i16, i8, i8, i8, i8, %class.InstanceKlassFlags, ptr, ptr, ptr, ptr, ptr, i64, ptr, ptr, ptr, ptr, ptr, ptr, ptr, ptr, ptr, ptr, ptr, ptr, ptr }
%class.Klass.base = type <{ %class.Metadata, i32, i32, i32, i32, ptr, ptr, ptr, [8 x ptr], %class.OopHandle, ptr, ptr, ptr, ptr, ptr, i32, %class.AccessFlags, i64, i64, i8, i8, i16, i16, [2 x i8], i32 }>
%class.InstanceKlassFlags = type <{ i16, i8, i8 }>
%class.ConstantPool = type <{ %class.Metadata, ptr, ptr, ptr, ptr, ptr, i16, i16, i16, i16, i16, [2 x i8], i32, %union.anon, [4 x i8] }>
%union.anon = type { i32 }
%class.Thread = type { %class.ThreadShadow.base, i64, [43 x i64], ptr, ptr, i32, ptr, i64, i64, %class.ThreadLocalAllocBuffer, i64, %class.ThreadHeapSampler, %class.ThreadStatisticalInfo, %class.JfrThreadLocal, ptr, ptr, ptr, ptr, ptr, ptr, i64, i32, i32, ptr, i32, i32, i32, i32, i8, ptr }
%class.ThreadShadow.base = type <{ ptr, ptr, ptr, i32 }>
%class.ThreadLocalAllocBuffer = type <{ ptr, ptr, ptr, ptr, ptr, i64, i64, i64, i64, i32, i32, i32, i32, i64, %class.AdaptiveWeightedAverage, [4 x i8] }>
%class.AdaptiveWeightedAverage = type { float, i32, i32, i8, float }
%class.ThreadHeapSampler = type { i64 }
%class.ThreadStatisticalInfo = type { i64, i64 }
%class.JfrThreadLocal = type <{ ptr, ptr, ptr, ptr, ptr, ptr, ptr, ptr, ptr, ptr, %class.RefCountHandle, i64, i64, i64, i64, i64, i64, i64, i64, i64, i64, i64, i32, i32, i32, i16, i8, i8, i8, i8, i8, [5 x i8] }>
%class.RefCountHandle = type { ptr }
%class.GrowableArrayBase = type { i32, i32 }
%class.GrowableArrayView = type { %class.GrowableArrayBase, ptr }

@g_assert_poison = external global ptr, align 8
@.str = private unnamed_addr constant [46 x i8] c"src/hotspot/share/runtime/fieldDescriptor.cpp\00", align 1
@.str.4 = private unnamed_addr constant [84 x i8] c"guarantee(_fieldinfo.name_index() != 0 && _fieldinfo.signature_index() != 0) failed\00", align 1
@.str.5 = private unnamed_addr constant [44 x i8] c"bad constant pool index for fieldDescriptor\00", align 1
@_ZN6Thread12_thr_currentE = external thread_local global ptr, align 8

; Function Attrs: mustprogress nounwind uwtable
define linkonce_odr hidden noundef i32 @_ZN21CountLeadingZerosImplIiLm4EE4doitEi(i32 noundef %0) #1 comdat align 2 {
  %2 = alloca i32, align 4
  store i32 %0, ptr %2, align 4
  %3 = load i32, ptr %2, align 4
  %4 = call i32 @llvm.ctlz.i32(i32 %3, i1 true)
  ret i32 %4
}

; Function Attrs: mustprogress nounwind uwtable
define linkonce_odr hidden noundef i32 @_Z19count_leading_zerosIiEjT_(i32 noundef %0) #1 comdat {
  %2 = alloca i32, align 4
  store i32 %0, ptr %2, align 4
  %3 = load i32, ptr %2, align 4
  %4 = call noundef i32 @_ZN21CountLeadingZerosImplIiLm4EE4doitEi(i32 noundef %3)
  ret i32 %4
}

; Function Attrs: mustprogress nounwind uwtable
define linkonce_odr hidden noundef i32 @_Z5log2iIiTnNSt9enable_ifIXcvbsr3std11is_integralIT_EE5valueEiE4typeELi0EEiS1_(i32 noundef %0) #1 comdat {
  %2 = alloca i32, align 4
  %3 = alloca i32, align 4
  store i32 %0, ptr %2, align 4
  store i32 32, ptr %3, align 4
  %4 = load i32, ptr %2, align 4
  %5 = call noundef i32 @_Z19count_leading_zerosIiEjT_(i32 noundef %4)
  %6 = sub i32 32, %5
  %7 = sub i32 %6, 1
  ret i32 %7
}

; Function Attrs: mustprogress nounwind uwtable
define linkonce_odr hidden noundef zeroext i1 @_Z13is_power_of_2IiTnNSt9enable_ifIXcvbsr3std11is_integralIT_EE5valueEiE4typeELi0EEbS1_(i32 noundef %0) #1 comdat {
  %2 = alloca i32, align 4
  store i32 %0, ptr %2, align 4
  %3 = load i32, ptr %2, align 4
  %4 = icmp sgt i32 %3, 0
  br i1 %4, label %5, label %11

5:                                                ; preds = %1
  %6 = load i32, ptr %2, align 4
  %7 = load i32, ptr %2, align 4
  %8 = sub nsw i32 %7, 1
  %9 = and i32 %6, %8
  %10 = icmp eq i32 %9, 0
  br label %11

11:                                               ; preds = %5, %1
  %12 = phi i1 [ false, %1 ], [ %10, %5 ]
  ret i1 %12
}

; Function Attrs: mustprogress nounwind uwtable
define linkonce_odr hidden noundef i32 @_Z19round_up_power_of_2IiTnNSt9enable_ifIXcvbsr3std11is_integralIT_EE5valueEiE4typeELi0EES1_S1_(i32 noundef %0) #1 comdat {
  %2 = alloca i32, align 4
  %3 = alloca i32, align 4
  store i32 %0, ptr %3, align 4
  %4 = load i32, ptr %3, align 4
  %5 = call noundef zeroext i1 @_Z13is_power_of_2IiTnNSt9enable_ifIXcvbsr3std11is_integralIT_EE5valueEiE4typeELi0EEbS1_(i32 noundef %4)
  br i1 %5, label %6, label %8

6:                                                ; preds = %1
  %7 = load i32, ptr %3, align 4
  store i32 %7, ptr %2, align 4
  br label %13

8:                                                ; preds = %1
  %9 = load i32, ptr %3, align 4
  %10 = call noundef i32 @_Z5log2iIiTnNSt9enable_ifIXcvbsr3std11is_integralIT_EE5valueEiE4typeELi0EEiS1_(i32 noundef %9)
  %11 = add nsw i32 %10, 1
  %12 = shl i32 1, %11
  store i32 %12, ptr %2, align 4
  br label %13

13:                                               ; preds = %8, %6
  %14 = load i32, ptr %2, align 4
  ret i32 %14
}

; Function Attrs: mustprogress nounwind uwtable
define linkonce_odr hidden noundef i32 @_Z15next_power_of_2IiTnNSt9enable_ifIXcvbsr3std11is_integralIT_EE5valueEiE4typeELi0EES1_S1_(i32 noundef %0) #1 comdat {
  %2 = alloca i32, align 4
  store i32 %0, ptr %2, align 4
  %3 = load i32, ptr %2, align 4
  %4 = add nsw i32 %3, 1
  %5 = call noundef i32 @_Z19round_up_power_of_2IiTnNSt9enable_ifIXcvbsr3std11is_integralIT_EE5valueEiE4typeELi0EES1_S1_(i32 noundef %4)
  ret i32 %5
}

; Function Attrs: mustprogress nounwind uwtable
define linkonce_odr hidden void @_ZN26GrowableArrayWithAllocatorIP8Metadata13GrowableArrayIS1_EE4growEi(ptr noundef nonnull align 8 dereferenceable(16) %0, i32 noundef %1) #1 comdat align 2 {
  %3 = alloca ptr, align 8
  %4 = alloca i32, align 4
  store ptr %0, ptr %3, align 8
  store i32 %1, ptr %4, align 4
  %5 = load ptr, ptr %3, align 8
  %6 = load i32, ptr %4, align 4
  %7 = call noundef i32 @_Z15next_power_of_2IiTnNSt9enable_ifIXcvbsr3std11is_integralIT_EE5valueEiE4typeELi0EES1_S1_(i32 noundef %6)
  call void @_ZN26GrowableArrayWithAllocatorIP8Metadata13GrowableArrayIS1_EE9expand_toEi(ptr noundef nonnull align 8 dereferenceable(16) %5, i32 noundef %7)
  ret void
}

; Function Attrs: mustprogress nounwind uwtable
define linkonce_odr hidden noundef i32 @_ZN26GrowableArrayWithAllocatorIP8Metadata13GrowableArrayIS1_EE6appendERKS1_(ptr noundef nonnull align 8 dereferenceable(16) %0, ptr noundef nonnull align 8 dereferenceable(8) %1) #1 comdat align 2 {
  %3 = alloca ptr, align 8
  %4 = alloca ptr, align 8
  %5 = alloca i32, align 4
  store ptr %0, ptr %3, align 8
  store ptr %1, ptr %4, align 8
  %6 = load ptr, ptr %3, align 8
  %7 = getelementptr inbounds %class.GrowableArrayBase, ptr %6, i32 0, i32 0
  %8 = load i32, ptr %7, align 8
  %9 = getelementptr inbounds %class.GrowableArrayBase, ptr %6, i32 0, i32 1
  %10 = load i32, ptr %9, align 4
  %11 = icmp eq i32 %8, %10
  br i1 %11, label %12, label %15

12:                                               ; preds = %2
  %13 = getelementptr inbounds %class.GrowableArrayBase, ptr %6, i32 0, i32 0
  %14 = load i32, ptr %13, align 8
  call void @_ZN26GrowableArrayWithAllocatorIP8Metadata13GrowableArrayIS1_EE4growEi(ptr noundef nonnull align 8 dereferenceable(16) %6, i32 noundef %14)
  br label %15

15:                                               ; preds = %12, %2
  %16 = getelementptr inbounds %class.GrowableArrayBase, ptr %6, i32 0, i32 0
  %17 = load i32, ptr %16, align 8
  %18 = add nsw i32 %17, 1
  store i32 %18, ptr %16, align 8
  store i32 %17, ptr %5, align 4
  %19 = load ptr, ptr %4, align 8
  %20 = load ptr, ptr %19, align 8
  %21 = getelementptr inbounds %class.GrowableArrayView, ptr %6, i32 0, i32 1
  %22 = load ptr, ptr %21, align 8
  %23 = load i32, ptr %5, align 4
  %24 = sext i32 %23 to i64
  %25 = getelementptr inbounds ptr, ptr %22, i64 %24
  store ptr %20, ptr %25, align 8
  %26 = load i32, ptr %5, align 4
  ret i32 %26
}

; Function Attrs: mustprogress nounwind uwtable
define linkonce_odr hidden noundef ptr @_ZNK18constantPoolHandle12non_null_objEv(ptr noundef nonnull align 8 dereferenceable(16) %0) #1 comdat align 2 {
  %2 = alloca ptr, align 8
  store ptr %0, ptr %2, align 8
  %3 = load ptr, ptr %2, align 8
  %4 = getelementptr inbounds %class.constantPoolHandle, ptr %3, i32 0, i32 0
  %5 = load ptr, ptr %4, align 8
  ret ptr %5
}

; Function Attrs: mustprogress nounwind uwtable
define linkonce_odr hidden void @_ZN26GrowableArrayWithAllocatorIP8Metadata13GrowableArrayIS1_EE4pushERKS1_(ptr noundef nonnull align 8 dereferenceable(16) %0, ptr noundef nonnull align 8 dereferenceable(8) %1) #1 comdat align 2 {
  %3 = alloca ptr, align 8
  %4 = alloca ptr, align 8
  store ptr %0, ptr %3, align 8
  store ptr %1, ptr %4, align 8
  %5 = load ptr, ptr %3, align 8
  %6 = load ptr, ptr %4, align 8
  %7 = call noundef i32 @_ZN26GrowableArrayWithAllocatorIP8Metadata13GrowableArrayIS1_EE6appendERKS1_(ptr noundef nonnull align 8 dereferenceable(16) %5, ptr noundef nonnull align 8 dereferenceable(8) %6)
  ret void
}

; Function Attrs: mustprogress nounwind uwtable
define linkonce_odr hidden noundef ptr @_ZNK6Thread16metadata_handlesEv(ptr noundef nonnull align 8 dereferenceable(888) %0) #1 comdat align 2 {
  %2 = alloca ptr, align 8
  store ptr %0, ptr %2, align 8
  %3 = load ptr, ptr %2, align 8
  %4 = getelementptr inbounds %class.Thread, ptr %3, i32 0, i32 18
  %5 = load ptr, ptr %4, align 8
  ret ptr %5
}

; Function Attrs: mustprogress nounwind uwtable
define linkonce_odr hidden noundef ptr @_ZN6Thread15current_or_nullEv() #1 comdat align 2 {
  %1 = call align 8 ptr @llvm.threadlocal.address.p0(ptr align 8 @_ZN6Thread12_thr_currentE)
  %2 = load ptr, ptr %1, align 8
  ret ptr %2
}

; Function Attrs: mustprogress nounwind uwtable
define linkonce_odr hidden noundef ptr @_ZNK12ConstantPool11pool_holderEv(ptr noundef nonnull align 8 dereferenceable(68) %0) #1 comdat align 2 {
  %2 = alloca ptr, align 8
  store ptr %0, ptr %2, align 8
  %3 = load ptr, ptr %2, align 8
  %4 = getelementptr inbounds %class.ConstantPool, ptr %3, i32 0, i32 3
  %5 = load ptr, ptr %4, align 8
  ret ptr %5
}

; Function Attrs: mustprogress nounwind uwtable
define linkonce_odr hidden noundef ptr @_ZNK18constantPoolHandleptEv(ptr noundef nonnull align 8 dereferenceable(16) %0) #1 comdat align 2 {
  %2 = alloca ptr, align 8
  store ptr %0, ptr %2, align 8
  %3 = load ptr, ptr %2, align 8
  %4 = call noundef ptr @_ZNK18constantPoolHandle12non_null_objEv(ptr noundef nonnull align 8 dereferenceable(16) %3)
  ret ptr %4
}

; Function Attrs: mustprogress nounwind uwtable
define linkonce_odr hidden noundef zeroext i16 @_ZNK9FieldInfo15signature_indexEv(ptr noundef nonnull align 4 dereferenceable(26) %0) #1 comdat align 2 {
  %2 = alloca ptr, align 8
  store ptr %0, ptr %2, align 8
  %3 = load ptr, ptr %2, align 8
  %4 = getelementptr inbounds %class.FieldInfo, ptr %3, i32 0, i32 2
  %5 = load i16, ptr %4, align 2
  ret i16 %5
}

; Function Attrs: mustprogress nounwind uwtable
define linkonce_odr hidden noundef zeroext i16 @_ZNK9FieldInfo10name_indexEv(ptr noundef nonnull align 4 dereferenceable(26) %0) #1 comdat align 2 {
  %2 = alloca ptr, align 8
  store ptr %0, ptr %2, align 8
  %3 = load ptr, ptr %2, align 8
  %4 = getelementptr inbounds %class.FieldInfo, ptr %3, i32 0, i32 1
  %5 = load i16, ptr %4, align 4
  ret i16 %5
}

; Function Attrs: mustprogress nounwind uwtable
define linkonce_odr hidden void @_ZN18constantPoolHandleC2EP6ThreadP12ConstantPool(ptr noundef nonnull align 8 dereferenceable(16) %0, ptr noundef %1, ptr noundef %2) unnamed_addr #1 comdat align 2 {
  %4 = alloca ptr, align 8
  %5 = alloca ptr, align 8
  %6 = alloca ptr, align 8
  %7 = alloca ptr, align 8
  store ptr %0, ptr %4, align 8
  store ptr %1, ptr %5, align 8
  store ptr %2, ptr %6, align 8
  %8 = load ptr, ptr %4, align 8
  %9 = getelementptr inbounds %class.constantPoolHandle, ptr %8, i32 0, i32 0
  %10 = load ptr, ptr %6, align 8
  store ptr %10, ptr %9, align 8
  %11 = getelementptr inbounds %class.constantPoolHandle, ptr %8, i32 0, i32 1
  %12 = load ptr, ptr %5, align 8
  store ptr %12, ptr %11, align 8
  %13 = load ptr, ptr %6, align 8
  %14 = icmp ne ptr %13, null
  br i1 %14, label %15, label %20

15:                                               ; preds = %3
  %16 = getelementptr inbounds %class.constantPoolHandle, ptr %8, i32 0, i32 1
  %17 = load ptr, ptr %16, align 8
  %18 = call noundef ptr @_ZNK6Thread16metadata_handlesEv(ptr noundef nonnull align 8 dereferenceable(888) %17)
  %19 = load ptr, ptr %6, align 8
  store ptr %19, ptr %7, align 8
  call void @_ZN26GrowableArrayWithAllocatorIP8Metadata13GrowableArrayIS1_EE4pushERKS1_(ptr noundef nonnull align 8 dereferenceable(16) %18, ptr noundef nonnull align 8 dereferenceable(8) %7)
  br label %20

20:                                               ; preds = %15, %3
  ret void
}

; Function Attrs: mustprogress nounwind uwtable
define linkonce_odr hidden noundef ptr @_ZNK13InstanceKlass9constantsEv(ptr noundef nonnull align 8 dereferenceable(464) %0) #1 comdat align 2 {
  %2 = alloca ptr, align 8
  store ptr %0, ptr %2, align 8
  %3 = load ptr, ptr %2, align 8
  %4 = getelementptr inbounds %class.InstanceKlass, ptr %3, i32 0, i32 4
  %5 = load ptr, ptr %4, align 8
  ret ptr %5
}

; Function Attrs: mustprogress nounwind uwtable
define linkonce_odr hidden noundef ptr @_ZN6Thread7currentEv() #1 comdat align 2 {
  %1 = alloca ptr, align 8
  %2 = call noundef ptr @_ZN6Thread15current_or_nullEv()
  store ptr %2, ptr %1, align 8
  %3 = load ptr, ptr %1, align 8
  ret ptr %3
}

; Function Attrs: mustprogress nounwind uwtable
define linkonce_odr hidden noundef ptr @_ZNK15fieldDescriptor12field_holderEv(ptr noundef nonnull align 8 dereferenceable(48) %0) #1 comdat align 2 {
  %2 = alloca ptr, align 8
  store ptr %0, ptr %2, align 8
  %3 = load ptr, ptr %2, align 8
  %4 = getelementptr inbounds %class.fieldDescriptor, ptr %3, i32 0, i32 1
  %5 = call noundef ptr @_ZNK18constantPoolHandleptEv(ptr noundef nonnull align 8 dereferenceable(16) %4)
  %6 = call noundef ptr @_ZNK12ConstantPool11pool_holderEv(ptr noundef nonnull align 8 dereferenceable(68) %5)
  ret ptr %6
}

; Function Attrs: mustprogress nounwind uwtable
define linkonce_odr hidden noundef zeroext i1 @_ZNK18constantPoolHandle7is_nullEv(ptr noundef nonnull align 8 dereferenceable(16) %0) #1 comdat align 2 {
  %2 = alloca ptr, align 8
  store ptr %0, ptr %2, align 8
  %3 = load ptr, ptr %2, align 8
  %4 = getelementptr inbounds %class.constantPoolHandle, ptr %3, i32 0, i32 0
  %5 = load ptr, ptr %4, align 8
  %6 = icmp eq ptr %5, null
  ret i1 %6
}

; Function Attrs: mustprogress nounwind uwtable
define hidden void @_ZN15fieldDescriptor12reinitializeEP13InstanceKlassi(ptr noundef nonnull align 8 dereferenceable(48) %0, ptr noundef %1, i32 noundef %2) #1 align 2 {
  %4 = alloca ptr, align 8
  %5 = alloca ptr, align 8
  %6 = alloca i32, align 4
  %7 = alloca %class.constantPoolHandle, align 8
  %8 = alloca %class.FieldInfo, align 4
  store ptr %0, ptr %4, align 8
  store ptr %1, ptr %5, align 8
  store i32 %2, ptr %6, align 4
  %9 = load ptr, ptr %4, align 8
  %10 = getelementptr inbounds %class.fieldDescriptor, ptr %9, i32 0, i32 1
  %11 = call noundef zeroext i1 @_ZNK18constantPoolHandle7is_nullEv(ptr noundef nonnull align 8 dereferenceable(16) %10)
  br i1 %11, label %16, label %12

12:                                               ; preds = %3
  %13 = call noundef ptr @_ZNK15fieldDescriptor12field_holderEv(ptr noundef nonnull align 8 dereferenceable(48) %9)
  %14 = load ptr, ptr %5, align 8
  %15 = icmp ne ptr %13, %14
  br i1 %15, label %16, label %22

16:                                               ; preds = %12, %3
  %17 = call noundef ptr @_ZN6Thread7currentEv()
  %18 = load ptr, ptr %5, align 8
  %19 = call noundef ptr @_ZNK13InstanceKlass9constantsEv(ptr noundef nonnull align 8 dereferenceable(464) %18)
  call void @_ZN18constantPoolHandleC2EP6ThreadP12ConstantPool(ptr noundef nonnull align 8 dereferenceable(16) %7, ptr noundef %17, ptr noundef %19)
  %20 = getelementptr inbounds %class.fieldDescriptor, ptr %9, i32 0, i32 1
  %21 = call noundef nonnull align 8 dereferenceable(16) ptr @_ZN18constantPoolHandleaSERKS_(ptr noundef nonnull align 8 dereferenceable(16) %20, ptr noundef nonnull align 8 dereferenceable(16) %7)
  call void @_ZN18constantPoolHandleD1Ev(ptr noundef nonnull align 8 dereferenceable(16) %7) #8
  br label %22

22:                                               ; preds = %16, %12
  %23 = load ptr, ptr %5, align 8
  %24 = load i32, ptr %6, align 4
  call void @_ZNK13InstanceKlass5fieldEi(ptr dead_on_unwind writable sret(%class.FieldInfo) align 4 %8, ptr noundef nonnull align 8 dereferenceable(464) %23, i32 noundef %24)
  %25 = getelementptr inbounds %class.fieldDescriptor, ptr %9, i32 0, i32 0
  call void @llvm.memcpy.p0.p0.i64(ptr align 8 %25, ptr align 4 %8, i64 26, i1 false)
  br label %26

26:                                               ; preds = %22
  %27 = getelementptr inbounds %class.fieldDescriptor, ptr %9, i32 0, i32 0
  %28 = call noundef zeroext i16 @_ZNK9FieldInfo10name_indexEv(ptr noundef nonnull align 4 dereferenceable(26) %27)
  %29 = zext i16 %28 to i32
  %30 = icmp ne i32 %29, 0
  br i1 %30, label %31, label %36

31:                                               ; preds = %26
  %32 = getelementptr inbounds %class.fieldDescriptor, ptr %9, i32 0, i32 0
  %33 = call noundef zeroext i16 @_ZNK9FieldInfo15signature_indexEv(ptr noundef nonnull align 4 dereferenceable(26) %32)
  %34 = zext i16 %33 to i32
  %35 = icmp ne i32 %34, 0
  br i1 %35, label %38, label %36

36:                                               ; preds = %31, %26
  %37 = load ptr, ptr @g_assert_poison, align 8
  store i8 88, ptr %37, align 1
  call void (ptr, i32, ptr, ptr, ...) @_Z15report_vm_errorPKciS0_S0_z(ptr noundef @.str, i32 noundef 100, ptr noundef @.str.4, ptr noundef @.str.5) #9
  unreachable

38:                                               ; preds = %31
  br label %39

39:                                               ; preds = %38
  ret void
}