; Function Attrs: mustprogress nounwind uwtable
define hidden void @_ZN15fieldDescriptor12reinitializeEP13InstanceKlassi(ptr noundef nonnull align 8 dereferenceable(48) %0, ptr noundef %1, i32 noundef %2) local_unnamed_addr #1 align 2 {
  %4 = alloca %class.constantPoolHandle, align 8
  %5 = alloca %class.FieldInfo, align 4
  %6 = getelementptr inbounds i8, ptr %0, i64 32
  %7 = load ptr, ptr %6, align 8
  %8 = icmp eq ptr %7, null
  br i1 %8, label %12, label %9

9:                                                ; preds = %3
  %10 = getelementptr inbounds i8, ptr %7, i64 24
  %11 = load ptr, ptr %10, align 8
  %.not = icmp eq ptr %11, %1
  br i1 %.not, label %42, label %12

12:                                               ; preds = %9, %3
  %13 = tail call align 8 ptr @llvm.threadlocal.address.p0(ptr align 8 @_ZN6Thread12_thr_currentE)
  %14 = load ptr, ptr %13, align 8
  %15 = getelementptr inbounds i8, ptr %1, i64 224
  %16 = load ptr, ptr %15, align 8
  store ptr %16, ptr %4, align 8
  %17 = getelementptr inbounds i8, ptr %4, i64 8
  store ptr %14, ptr %17, align 8
  %.not.i = icmp eq ptr %16, null
  br i1 %.not.i, label %_ZN18constantPoolHandleC2EP6ThreadP12ConstantPool.exit, label %18

18:                                               ; preds = %12
  %19 = getelementptr inbounds i8, ptr %14, i64 816
  %20 = load ptr, ptr %19, align 8
  %21 = load i32, ptr %20, align 8
  %22 = getelementptr inbounds i8, ptr %20, i64 4
  %23 = load i32, ptr %22, align 4
  %24 = icmp eq i32 %21, %23
  br i1 %24, label %25, label %_ZN26GrowableArrayWithAllocatorIP8Metadata13GrowableArrayIS1_EE4pushERKS1_.exit.i

25:                                               ; preds = %18
  %26 = add nsw i32 %21, 1
  %27 = icmp sgt i32 %21, -1
  %28 = xor i32 %21, -2147483648
  %29 = and i32 %28, %26
  %30 = icmp eq i32 %29, 0
  %31 = and i1 %27, %30
  %32 = tail call range(i32 0, 33) i32 @llvm.ctlz.i32(i32 %26, i1 true)
  %33 = sub nuw nsw i32 32, %32
  %34 = shl nuw i32 1, %33
  %.0.i.i.i.i.i.i = select i1 %31, i32 %26, i32 %34
  tail call void @_ZN26GrowableArrayWithAllocatorIP8Metadata13GrowableArrayIS1_EE9expand_toEi(ptr noundef nonnull align 8 dereferenceable(16) %20, i32 noundef %.0.i.i.i.i.i.i)
  %.pre.i.i.i = load i32, ptr %20, align 8
  br label %_ZN26GrowableArrayWithAllocatorIP8Metadata13GrowableArrayIS1_EE4pushERKS1_.exit.i

_ZN26GrowableArrayWithAllocatorIP8Metadata13GrowableArrayIS1_EE4pushERKS1_.exit.i: ; preds = %25, %18
  %35 = phi i32 [ %.pre.i.i.i, %25 ], [ %21, %18 ]
  %36 = add nsw i32 %35, 1
  store i32 %36, ptr %20, align 8
  %37 = getelementptr inbounds i8, ptr %20, i64 8
  %38 = load ptr, ptr %37, align 8
  %39 = sext i32 %35 to i64
  %40 = getelementptr inbounds ptr, ptr %38, i64 %39
  store ptr %16, ptr %40, align 8
  br label %_ZN18constantPoolHandleC2EP6ThreadP12ConstantPool.exit

_ZN18constantPoolHandleC2EP6ThreadP12ConstantPool.exit: ; preds = %12, %_ZN26GrowableArrayWithAllocatorIP8Metadata13GrowableArrayIS1_EE4pushERKS1_.exit.i
  %41 = call noundef nonnull align 8 dereferenceable(16) ptr @_ZN18constantPoolHandleaSERKS_(ptr noundef nonnull align 8 dereferenceable(16) %6, ptr noundef nonnull align 8 dereferenceable(16) %4) #9
  call void @_ZN18constantPoolHandleD1Ev(ptr noundef nonnull align 8 dereferenceable(16) %4) #9
  br label %42

42:                                               ; preds = %_ZN18constantPoolHandleC2EP6ThreadP12ConstantPool.exit, %9
  call void @_ZNK13InstanceKlass5fieldEi(ptr dead_on_unwind nonnull writable sret(%class.FieldInfo) align 4 %5, ptr noundef nonnull align 8 dereferenceable(464) %1, i32 noundef %2) #9
  call void @llvm.memcpy.p0.p0.i64(ptr noundef nonnull align 8 dereferenceable(26) %0, ptr noundef nonnull align 4 dereferenceable(26) %5, i64 26, i1 false)
  %43 = getelementptr inbounds i8, ptr %0, i64 4
  %44 = load i16, ptr %43, align 4
  %.not4 = icmp eq i16 %44, 0
  %45 = getelementptr inbounds i8, ptr %0, i64 6
  %46 = load i16, ptr %45, align 2
  %.not5 = icmp eq i16 %46, 0
  %or.cond = select i1 %.not4, i1 true, i1 %.not5
  br i1 %or.cond, label %47, label %49

47:                                               ; preds = %42
  %48 = load ptr, ptr @g_assert_poison, align 8
  store i8 88, ptr %48, align 1
  call void (ptr, i32, ptr, ptr, ...) @_Z15report_vm_errorPKciS0_S0_z(ptr noundef nonnull @.str, i32 noundef 100, ptr noundef nonnull @.str.4, ptr noundef nonnull @.str.5) #10
  unreachable

49:                                               ; preds = %42
  ret void
}